target datalayout = "e-m:e-p270:32:32-p271:32:32-p272:64:64-i64:64-i128:128-f80:128-n8:16:32:64-S128"
target triple = "x86_64-pc-linux-gnu"

%struct.expert_field = type { i32, i32 }
%struct.nstime_t = type { i64, i32 }
%struct.tm = type { i32, i32, i32, i32, i32, i32, i32, i32, i32, i64, ptr }

@hf_logcat_text_timestamp = internal global i32 0, align 4
@ei_malformed_time = internal global %struct.expert_field zeroinitializer, align 4
@.str.29 = private unnamed_addr constant [18 x i8] c"%d-%d %d:%d:%d.%d\00", align 1

; Function Attrs: null_pointer_is_valid sspstrong uwtable
define internal i32 @get_time(ptr noundef %0, ptr noundef %1, ptr noundef %2, ptr noundef %3, i32 noundef %4, ptr noundef %5) #0 {
  %7 = alloca ptr, align 8
  %8 = alloca ptr, align 8
  %9 = alloca ptr, align 8
  %10 = alloca ptr, align 8
  %11 = alloca i32, align 4
  %12 = alloca ptr, align 8
  %13 = alloca i32, align 4
  %14 = alloca ptr, align 8
  %15 = alloca i32, align 4
  %16 = alloca %struct.tm, align 8
  %17 = alloca i64, align 8
  %18 = alloca %struct.nstime_t, align 8
  store ptr %0, ptr %7, align 8
  store ptr %1, ptr %8, align 8
  store ptr %2, ptr %9, align 8
  store ptr %3, ptr %10, align 8
  store i32 %4, ptr %11, align 4
  store ptr %5, ptr %12, align 8
  call void @llvm.lifetime.start.p0(i64 4, ptr %13) #7
  call void @llvm.lifetime.start.p0(i64 8, ptr %14) #7
  call void @llvm.lifetime.start.p0(i64 4, ptr %15) #7
  call void @llvm.lifetime.start.p0(i64 56, ptr %16) #7
  call void @llvm.lifetime.start.p0(i64 8, ptr %17) #7
  call void @llvm.lifetime.start.p0(i64 16, ptr %18) #7
  %19 = load ptr, ptr %7, align 8
  %20 = load i32, ptr %11, align 4
  %21 = sext i32 %20 to i64
  %22 = getelementptr i8, ptr %19, i64 %21
  %23 = load ptr, ptr %8, align 8
  %24 = call ptr @g_strstr_len(ptr noundef %22, i64 noundef -1, ptr noundef %23)
  store ptr %24, ptr %14, align 8
  %25 = load ptr, ptr %14, align 8
  %26 = load ptr, ptr %7, align 8
  %27 = ptrtoint ptr %25 to i64
  %28 = ptrtoint ptr %26 to i64
  %29 = sub i64 %27, %28
  %30 = trunc i64 %29 to i32
  store i32 %30, ptr %13, align 4
  %31 = load ptr, ptr %8, align 8
  %32 = getelementptr inbounds nuw %struct.tm, ptr %16, i32 0, i32 4
  %33 = getelementptr inbounds nuw %struct.tm, ptr %16, i32 0, i32 3
  %34 = getelementptr inbounds nuw %struct.tm, ptr %16, i32 0, i32 2
  %35 = getelementptr inbounds nuw %struct.tm, ptr %16, i32 0, i32 1
  %36 = getelementptr inbounds nuw %struct.tm, ptr %16, i32 0, i32 0
  %37 = call i32 (ptr, ptr, ...) @__isoc99_sscanf(ptr noundef %31, ptr noundef @.str.29, ptr noundef %32, ptr noundef %33, ptr noundef %34, ptr noundef %35, ptr noundef %36, ptr noundef %15) #7
  %38 = icmp eq i32 6, %37
  br i1 %38, label %39, label %61

39:                                               ; preds = %6
  %40 = getelementptr inbounds nuw %struct.tm, ptr %16, i32 0, i32 5
  store i32 70, ptr %40, align 4
  %41 = getelementptr inbounds nuw %struct.tm, ptr %16, i32 0, i32 4
  %42 = load i32, ptr %41, align 8
  %43 = sub i32 %42, 1
  store i32 %43, ptr %41, align 8
  %44 = getelementptr inbounds nuw %struct.tm, ptr %16, i32 0, i32 8
  store i32 -1, ptr %44, align 8
  %45 = call i64 @mktime(ptr noundef %16) #7
  store i64 %45, ptr %17, align 8
  %46 = load i64, ptr %17, align 8
  %47 = getelementptr inbounds nuw %struct.nstime_t, ptr %18, i32 0, i32 0
  store i64 %46, ptr %47, align 8
  %48 = load i32, ptr %15, align 4
  %49 = sitofp i32 %48 to double
  %50 = fmul double %49, 1.000000e+06
  %51 = fptosi double %50 to i32
  %52 = getelementptr inbounds nuw %struct.nstime_t, ptr %18, i32 0, i32 1
  store i32 %51, ptr %52, align 8
  %53 = load ptr, ptr %10, align 8
  %54 = load i32, ptr @hf_logcat_text_timestamp, align 4
  %55 = load ptr, ptr %9, align 8
  %56 = load i32, ptr %13, align 4
  %57 = load ptr, ptr %8, align 8
  %58 = call i64 @strlen(ptr noundef %57) #8
  %59 = trunc i64 %58 to i32
  %60 = call ptr @proto_tree_add_time(ptr noundef %53, i32 noundef %54, ptr noundef %55, i32 noundef %56, i32 noundef %59, ptr noundef %18)
  br label %67

61:                                               ; preds = %6
  %62 = load ptr, ptr %10, align 8
  %63 = load ptr, ptr %12, align 8
  %64 = load ptr, ptr %9, align 8
  %65 = load i32, ptr %13, align 4
  %66 = call ptr @proto_tree_add_expert(ptr noundef %62, ptr noundef %63, ptr noundef @ei_malformed_time, ptr noundef %64, i32 noundef %65, i32 noundef -1)
  br label %67

67:                                               ; preds = %61, %39
  %68 = load i32, ptr %13, align 4
  %69 = load ptr, ptr %8, align 8
  %70 = call i64 @strlen(ptr noundef %69) #8
  %71 = trunc i64 %70 to i32
  %72 = add i32 %68, %71
  call void @llvm.lifetime.end.p0(i64 16, ptr %18) #7
  call void @llvm.lifetime.end.p0(i64 8, ptr %17) #7
  call void @llvm.lifetime.end.p0(i64 56, ptr %16) #7
  call void @llvm.lifetime.end.p0(i64 4, ptr %15) #7
  call void @llvm.lifetime.end.p0(i64 8, ptr %14) #7
  call void @llvm.lifetime.end.p0(i64 4, ptr %13) #7
  ret i32 %72
}