; Function Attrs: null_pointer_is_valid sspstrong uwtable
define internal i32 @get_time(ptr noundef %0, ptr noundef %1, ptr noundef %2, ptr noundef %3, i32 noundef %4, ptr noundef %5) #0 {
  %7 = alloca i32, align 4
  %8 = alloca %struct.tm, align 8
  %9 = alloca %struct.nstime_t, align 8
  call void @llvm.lifetime.start.p0(i64 4, ptr nonnull %7) #7
  call void @llvm.lifetime.start.p0(i64 56, ptr nonnull %8) #7
  call void @llvm.lifetime.start.p0(i64 16, ptr nonnull %9) #7
  %10 = sext i32 %4 to i64
  %11 = getelementptr i8, ptr %0, i64 %10
  %12 = tail call ptr @g_strstr_len(ptr noundef %11, i64 noundef -1, ptr noundef %1)
  %13 = ptrtoint ptr %12 to i64
  %14 = ptrtoint ptr %0 to i64
  %15 = sub i64 %13, %14
  %16 = trunc i64 %15 to i32
  %17 = getelementptr inbounds nuw i8, ptr %8, i64 16
  %18 = getelementptr inbounds nuw i8, ptr %8, i64 12
  %19 = getelementptr inbounds nuw i8, ptr %8, i64 8
  %20 = getelementptr inbounds nuw i8, ptr %8, i64 4
  %21 = call i32 (ptr, ptr, ...) @__isoc99_sscanf(ptr noundef %1, ptr noundef nonnull @.str.29, ptr noundef nonnull %17, ptr noundef nonnull %18, ptr noundef nonnull %19, ptr noundef nonnull %20, ptr noundef nonnull %8, ptr noundef nonnull %7) #7
  %22 = icmp eq i32 %21, 6
  br i1 %22, label %23, label %38

23:                                               ; preds = %6
  %24 = getelementptr inbounds nuw i8, ptr %8, i64 20
  store i32 70, ptr %24, align 4
  %25 = load i32, ptr %17, align 8
  %26 = add i32 %25, -1
  store i32 %26, ptr %17, align 8
  %27 = getelementptr inbounds nuw i8, ptr %8, i64 32
  store i32 -1, ptr %27, align 8
  %28 = call i64 @mktime(ptr noundef nonnull %8) #7
  store i64 %28, ptr %9, align 8
  %29 = load i32, ptr %7, align 4
  %30 = sitofp i32 %29 to double
  %31 = fmul double %30, 1.000000e+06
  %32 = fptosi double %31 to i32
  %33 = getelementptr inbounds nuw i8, ptr %9, i64 8
  store i32 %32, ptr %33, align 8
  %34 = load i32, ptr @hf_logcat_text_timestamp, align 4
  %35 = call i64 @strlen(ptr noundef %1) #6
  %36 = trunc i64 %35 to i32
  %37 = call ptr @proto_tree_add_time(ptr noundef %3, i32 noundef %34, ptr noundef %2, i32 noundef %16, i32 noundef %36, ptr noundef nonnull %9)
  br label %40

38:                                               ; preds = %6
  %39 = call ptr @proto_tree_add_expert(ptr noundef %3, ptr noundef %5, ptr noundef nonnull @ei_malformed_time, ptr noundef %2, i32 noundef %16, i32 noundef -1)
  br label %40

40:                                               ; preds = %38, %23
  %41 = call i64 @strlen(ptr noundef %1) #6
  %42 = trunc i64 %41 to i32
  %43 = add i32 %42, %16
  call void @llvm.lifetime.end.p0(i64 16, ptr nonnull %9) #7
  call void @llvm.lifetime.end.p0(i64 56, ptr nonnull %8) #7
  call void @llvm.lifetime.end.p0(i64 4, ptr nonnull %7) #7
  ret i32 %43
}